; Function Attrs: mustprogress nofree norecurse nounwind willreturn uwtable
define void @_ZN7rocksdb14CacheSimulatorC2EOSt10unique_ptrINS_10GhostCacheESt14default_deleteIS2_EESt10shared_ptrINS_5CacheEE(ptr noundef nonnull align 8 dereferenceable(160) initializes((0, 40), (48, 52), (56, 64)) %0, ptr noundef nonnull align 8 captures(none) dereferenceable(8) %1, ptr noundef readonly captures(none) %2) unnamed_addr #3 align 2 personality ptr @__gxx_personality_v0 {
  store ptr getelementptr inbounds nuw inrange(-16, 24) (i8, ptr @_ZTVN7rocksdb14CacheSimulatorE, i64 16), ptr %0, align 8, !tbaa !16
  %4 = getelementptr inbounds nuw i8, ptr %0, i64 8
  %5 = getelementptr inbounds nuw i8, ptr %0, i64 48
  store i32 0, ptr %5, align 8, !tbaa !24
  %6 = getelementptr inbounds nuw i8, ptr %0, i64 56
  store ptr null, ptr %6, align 8, !tbaa !29
  %7 = getelementptr inbounds nuw i8, ptr %0, i64 64
  tail call void @llvm.memset.p0.i64(ptr noundef nonnull align 8 dereferenceable(128) %4, i8 0, i64 32, i1 false)
  store ptr %5, ptr %7, align 8, !tbaa !30
  %8 = getelementptr inbounds nuw i8, ptr %0, i64 72
  store ptr %5, ptr %8, align 8, !tbaa !31
  %9 = getelementptr inbounds nuw i8, ptr %0, i64 80
  store i64 0, ptr %9, align 8, !tbaa !32
  %10 = getelementptr inbounds nuw i8, ptr %0, i64 96
  store i32 0, ptr %10, align 8, !tbaa !24
  %11 = getelementptr inbounds nuw i8, ptr %0, i64 104
  store ptr null, ptr %11, align 8, !tbaa !29
  %12 = getelementptr inbounds nuw i8, ptr %0, i64 112
  store ptr %10, ptr %12, align 8, !tbaa !30
  %13 = getelementptr inbounds nuw i8, ptr %0, i64 120
  store ptr %10, ptr %13, align 8, !tbaa !31
  %14 = getelementptr inbounds nuw i8, ptr %0, i64 128
  store i64 0, ptr %14, align 8, !tbaa !32
  %15 = getelementptr inbounds nuw i8, ptr %0, i64 136
  %16 = load i64, ptr %1, align 8, !tbaa !33
  store i64 %16, ptr %15, align 8, !tbaa !33
  store ptr null, ptr %1, align 8, !tbaa !33
  %17 = getelementptr inbounds nuw i8, ptr %0, i64 144
  %18 = load ptr, ptr %2, align 8, !tbaa !4
  store ptr %18, ptr %17, align 8, !tbaa !4
  %19 = getelementptr inbounds nuw i8, ptr %0, i64 152
  %20 = getelementptr inbounds nuw i8, ptr %2, i64 8
  %21 = load ptr, ptr %20, align 8, !tbaa !12
  store ptr %21, ptr %19, align 8, !tbaa !12
  %.not.i.i.i = icmp eq ptr %21, null
  br i1 %.not.i.i.i, label %_ZNSt10shared_ptrIN7rocksdb5CacheEEC2ERKS2_.exit, label %22

22:                                               ; preds = %3
  %23 = getelementptr inbounds nuw i8, ptr %21, i64 8
  %24 = load i8, ptr @__libc_single_threaded, align 1, !tbaa !13
  %.not.i.i.i.i = icmp eq i8 %24, 0
  br i1 %.not.i.i.i.i, label %28, label %25

25:                                               ; preds = %22
  %26 = load i32, ptr %23, align 4, !tbaa !14
  %27 = add nsw i32 %26, 1
  store i32 %27, ptr %23, align 4, !tbaa !14
  br label %_ZNSt10shared_ptrIN7rocksdb5CacheEEC2ERKS2_.exit

28:                                               ; preds = %22
  %29 = atomicrmw volatile add ptr %23, i32 1 acq_rel, align 4
  br label %_ZNSt10shared_ptrIN7rocksdb5CacheEEC2ERKS2_.exit

_ZNSt10shared_ptrIN7rocksdb5CacheEEC2ERKS2_.exit: ; preds = %3, %25, %28
  ret void
}